target datalayout = "e-m:e-p270:32:32-p271:32:32-p272:64:64-i64:64-i128:128-f80:128-n8:16:32:64-S128"
target triple = "x86_64-pc-linux-gnu"

%struct.H5CX_node_t = type { %struct.H5CX_t, ptr }
%struct.H5CX_t = type { i64, ptr, i64, ptr, i64, ptr, i64, ptr, i64, ptr, i64, ptr, i64, i32, i64, i8, ptr, i8, ptr, i8, i32, i8, [3 x double], i8, i64, i8, i32, i8, %struct.H5Z_cb_t, i8, ptr, i8, %struct.H5T_vlen_alloc_info_t, i8, %struct.H5T_conv_cb_t, i8, i32, i8, i8, i8, i32, i8, i8, i32, i8, i8, i32, i8, i32, i8, i64, i8, i8, i8, i8, i8, ptr, i8, ptr, i8, i32, i8, i32, i8, %struct.H5VL_connector_prop_t, i8, ptr, i8 }
%struct.H5Z_cb_t = type { ptr, ptr }
%struct.H5T_vlen_alloc_info_t = type { ptr, ptr, ptr, ptr }
%struct.H5T_conv_cb_t = type { ptr, ptr }
%struct.H5VL_connector_prop_t = type { ptr, ptr }
%struct.H5ES_err_info_t = type { ptr, ptr, ptr, ptr, i32, i64, i64, i64, i64, i64 }

@H5_libinit_g = external global i8, align 1
@H5_libterm_g = external global i8, align 1
@.str = private unnamed_addr constant [98 x i8] c"generated/home/dtcxzyw/WorkSpace/Projects/compilers/llvm-opt-benchmark/bench/hdf5/hdf5/src/H5ES.c\00", align 1
@H5E_FUNC_g = external global i64, align 8
@H5E_CANTINIT_g = external global i64, align 8
@.str.1 = private unnamed_addr constant [30 x i8] c"library initialization failed\00", align 1
@H5ES_init_g = external global i8, align 1
@.str.2 = private unnamed_addr constant [32 x i8] c"interface initialization failed\00", align 1
@H5E_CANTSET_g = external global i64, align 8
@.str.3 = private unnamed_addr constant [22 x i8] c"can't set API context\00", align 1
@H5E_EVENTSET_g = external global i64, align 8
@H5E_ARGS_g = external global i64, align 8
@H5E_BADVALUE_g = external global i64, align 8
@.str.17 = private unnamed_addr constant [25 x i8] c"err_info array size is 0\00", align 1
@.str.18 = private unnamed_addr constant [28 x i8] c"NULL err_info array pointer\00", align 1
@__func__.H5ESfree_err_info = private unnamed_addr constant [18 x i8] c"H5ESfree_err_info\00", align 1
@H5E_CANTDEC_g = external global i64, align 8
@.str.21 = private unnamed_addr constant [42 x i8] c"can't close error stack for err_info #%zu\00", align 1

; Function Attrs: nounwind uwtable
define i32 @H5ESfree_err_info(i64 noundef %0, ptr noundef %1) #0 {
  %3 = alloca i64, align 8
  %4 = alloca ptr, align 8
  %5 = alloca i64, align 8
  %6 = alloca i32, align 4
  %7 = alloca %struct.H5CX_node_t, align 8
  %8 = alloca i8, align 1
  %9 = alloca i8, align 1
  store i64 %0, ptr %3, align 8, !tbaa !3
  store ptr %1, ptr %4, align 8, !tbaa !28
  call void @llvm.lifetime.start.p0(i64 8, ptr %5) #5
  call void @llvm.lifetime.start.p0(i64 4, ptr %6) #5
  store i32 0, ptr %6, align 4, !tbaa !17
  call void @llvm.lifetime.start.p0(i64 480, ptr %7) #5
  call void @llvm.memset.p0.i64(ptr align 8 %7, i8 0, i64 480, i1 false)
  call void @llvm.lifetime.start.p0(i64 1, ptr %8) #5
  store i8 0, ptr %8, align 1, !tbaa !7
  call void @llvm.lifetime.start.p0(i64 1, ptr %9) #5
  store i8 0, ptr %9, align 1, !tbaa !7
  br label %10

10:                                               ; preds = %2
  %11 = load i8, ptr @H5_libinit_g, align 1, !tbaa !7, !range !9, !noundef !10
  %12 = trunc i8 %11 to i1
  br i1 %12, label %17, label %13

13:                                               ; preds = %10
  %14 = load i8, ptr @H5_libterm_g, align 1, !tbaa !7, !range !9, !noundef !10
  %15 = trunc i8 %14 to i1
  %16 = xor i1 %15, true
  br label %17

17:                                               ; preds = %13, %10
  %18 = phi i1 [ false, %10 ], [ %16, %13 ]
  %19 = xor i1 %18, true
  %20 = xor i1 %19, true
  %21 = zext i1 %20 to i32
  %22 = sext i32 %21 to i64
  %23 = call i64 @llvm.expect.i64(i64 %22, i64 0)
  %24 = icmp ne i64 %23, 0
  br i1 %24, label %25, label %54

25:                                               ; preds = %17
  %26 = call i32 @H5_init_library()
  %27 = icmp slt i32 %26, 0
  %28 = xor i1 %27, true
  %29 = xor i1 %28, true
  %30 = zext i1 %29 to i32
  %31 = sext i32 %30 to i64
  %32 = call i64 @llvm.expect.i64(i64 %31, i64 0)
  %33 = icmp ne i64 %32, 0
  br i1 %33, label %34, label %53

34:                                               ; preds = %25
  br label %35

35:                                               ; preds = %34
  br label %36

36:                                               ; preds = %35
  br label %37

37:                                               ; preds = %36
  %38 = load i64, ptr @H5E_FUNC_g, align 8, !tbaa !3
  %39 = load i64, ptr @H5E_CANTINIT_g, align 8, !tbaa !3
  %40 = call i32 (ptr, ptr, i32, i64, i64, ptr, ...) @H5E_printf_stack(ptr noundef @.str, ptr noundef @__func__.H5ESfree_err_info, i32 noundef 491, i64 noundef %38, i64 noundef %39, ptr noundef @.str.1)
  br label %41

41:                                               ; preds = %37
  br label %42

42:                                               ; preds = %41
  store i8 1, ptr %9, align 1, !tbaa !7
  %43 = load i8, ptr %9, align 1, !tbaa !7, !range !9, !noundef !10
  %44 = trunc i8 %43 to i1
  %45 = zext i1 %44 to i8
  store i8 %45, ptr %9, align 1, !tbaa !7
  br label %46

46:                                               ; preds = %42
  br label %47

47:                                               ; preds = %46
  br label %48

48:                                               ; preds = %47
  store i32 -1, ptr %6, align 4, !tbaa !17
  br label %233

49:                                               ; No predecessors!
  br label %50

50:                                               ; preds = %49
  br label %51

51:                                               ; preds = %50
  br label %52

52:                                               ; preds = %51
  br label %53

53:                                               ; preds = %52, %25
  br label %54

54:                                               ; preds = %53, %17
  %55 = load i8, ptr @H5ES_init_g, align 1, !tbaa !7, !range !9, !noundef !10
  %56 = trunc i8 %55 to i1
  br i1 %56, label %61, label %57

57:                                               ; preds = %54
  %58 = load i8, ptr @H5_libterm_g, align 1, !tbaa !7, !range !9, !noundef !10
  %59 = trunc i8 %58 to i1
  %60 = xor i1 %59, true
  br label %61

61:                                               ; preds = %57, %54
  %62 = phi i1 [ false, %54 ], [ %60, %57 ]
  %63 = xor i1 %62, true
  %64 = xor i1 %63, true
  %65 = zext i1 %64 to i32
  %66 = sext i32 %65 to i64
  %67 = call i64 @llvm.expect.i64(i64 %66, i64 0)
  %68 = icmp ne i64 %67, 0
  br i1 %68, label %69, label %92

69:                                               ; preds = %61
  store i8 1, ptr @H5ES_init_g, align 1, !tbaa !7
  %70 = call i32 @H5ES__init_package()
  %71 = icmp slt i32 %70, 0
  br i1 %71, label %72, label %91

72:                                               ; preds = %69
  store i8 0, ptr @H5ES_init_g, align 1, !tbaa !7
  br label %73

73:                                               ; preds = %72
  br label %74

74:                                               ; preds = %73
  br label %75

75:                                               ; preds = %74
  %76 = load i64, ptr @H5E_FUNC_g, align 8, !tbaa !3
  %77 = load i64, ptr @H5E_CANTINIT_g, align 8, !tbaa !3
  %78 = call i32 (ptr, ptr, i32, i64, i64, ptr, ...) @H5E_printf_stack(ptr noundef @.str, ptr noundef @__func__.H5ESfree_err_info, i32 noundef 491, i64 noundef %76, i64 noundef %77, ptr noundef @.str.2)
  br label %79

79:                                               ; preds = %75
  br label %80

80:                                               ; preds = %79
  store i8 1, ptr %9, align 1, !tbaa !7
  %81 = load i8, ptr %9, align 1, !tbaa !7, !range !9, !noundef !10
  %82 = trunc i8 %81 to i1
  %83 = zext i1 %82 to i8
  store i8 %83, ptr %9, align 1, !tbaa !7
  br label %84

84:                                               ; preds = %80
  br label %85

85:                                               ; preds = %84
  br label %86

86:                                               ; preds = %85
  store i32 -1, ptr %6, align 4, !tbaa !17
  br label %233

87:                                               ; No predecessors!
  br label %88

88:                                               ; preds = %87
  br label %89

89:                                               ; preds = %88
  br label %90

90:                                               ; preds = %89
  br label %91

91:                                               ; preds = %90, %69
  br label %92

92:                                               ; preds = %91, %61
  br label %93

93:                                               ; preds = %92
  br label %94

94:                                               ; preds = %93
  br label %95

95:                                               ; preds = %94
  %96 = call i32 @H5CX_push(ptr noundef %7)
  %97 = icmp slt i32 %96, 0
  %98 = xor i1 %97, true
  %99 = xor i1 %98, true
  %100 = zext i1 %99 to i32
  %101 = sext i32 %100 to i64
  %102 = call i64 @llvm.expect.i64(i64 %101, i64 0)
  %103 = icmp ne i64 %102, 0
  br i1 %103, label %104, label %123

104:                                              ; preds = %95
  br label %105

105:                                              ; preds = %104
  br label %106

106:                                              ; preds = %105
  br label %107

107:                                              ; preds = %106
  %108 = load i64, ptr @H5E_FUNC_g, align 8, !tbaa !3
  %109 = load i64, ptr @H5E_CANTSET_g, align 8, !tbaa !3
  %110 = call i32 (ptr, ptr, i32, i64, i64, ptr, ...) @H5E_printf_stack(ptr noundef @.str, ptr noundef @__func__.H5ESfree_err_info, i32 noundef 491, i64 noundef %108, i64 noundef %109, ptr noundef @.str.3)
  br label %111

111:                                              ; preds = %107
  br label %112

112:                                              ; preds = %111
  store i8 1, ptr %9, align 1, !tbaa !7
  %113 = load i8, ptr %9, align 1, !tbaa !7, !range !9, !noundef !10
  %114 = trunc i8 %113 to i1
  %115 = zext i1 %114 to i8
  store i8 %115, ptr %9, align 1, !tbaa !7
  br label %116

116:                                              ; preds = %112
  br label %117

117:                                              ; preds = %116
  br label %118

118:                                              ; preds = %117
  store i32 -1, ptr %6, align 4, !tbaa !17
  br label %233

119:                                              ; No predecessors!
  br label %120

120:                                              ; preds = %119
  br label %121

121:                                              ; preds = %120
  br label %122

122:                                              ; preds = %121
  br label %124

123:                                              ; preds = %95
  store i8 1, ptr %8, align 1, !tbaa !7
  br label %124

124:                                              ; preds = %123, %122
  br label %125

125:                                              ; preds = %124
  br label %126

126:                                              ; preds = %125
  %127 = call i32 @H5E_clear_stack()
  %128 = load i64, ptr %3, align 8, !tbaa !3
  %129 = icmp eq i64 0, %128
  br i1 %129, label %130, label %149

130:                                              ; preds = %126
  br label %131

131:                                              ; preds = %130
  br label %132

132:                                              ; preds = %131
  br label %133

133:                                              ; preds = %132
  %134 = load i64, ptr @H5E_ARGS_g, align 8, !tbaa !3
  %135 = load i64, ptr @H5E_BADVALUE_g, align 8, !tbaa !3
  %136 = call i32 (ptr, ptr, i32, i64, i64, ptr, ...) @H5E_printf_stack(ptr noundef @.str, ptr noundef @__func__.H5ESfree_err_info, i32 noundef 495, i64 noundef %134, i64 noundef %135, ptr noundef @.str.17)
  br label %137

137:                                              ; preds = %133
  br label %138

138:                                              ; preds = %137
  store i8 1, ptr %9, align 1, !tbaa !7
  %139 = load i8, ptr %9, align 1, !tbaa !7, !range !9, !noundef !10
  %140 = trunc i8 %139 to i1
  %141 = zext i1 %140 to i8
  store i8 %141, ptr %9, align 1, !tbaa !7
  br label %142

142:                                              ; preds = %138
  br label %143

143:                                              ; preds = %142
  br label %144

144:                                              ; preds = %143
  store i32 -1, ptr %6, align 4, !tbaa !17
  br label %233

145:                                              ; No predecessors!
  br label %146

146:                                              ; preds = %145
  br label %147

147:                                              ; preds = %146
  br label %148

148:                                              ; preds = %147
  br label %149

149:                                              ; preds = %148, %126
  %150 = load ptr, ptr %4, align 8, !tbaa !28
  %151 = icmp eq ptr null, %150
  br i1 %151, label %152, label %171

152:                                              ; preds = %149
  br label %153

153:                                              ; preds = %152
  br label %154

154:                                              ; preds = %153
  br label %155

155:                                              ; preds = %154
  %156 = load i64, ptr @H5E_ARGS_g, align 8, !tbaa !3
  %157 = load i64, ptr @H5E_BADVALUE_g, align 8, !tbaa !3
  %158 = call i32 (ptr, ptr, i32, i64, i64, ptr, ...) @H5E_printf_stack(ptr noundef @.str, ptr noundef @__func__.H5ESfree_err_info, i32 noundef 497, i64 noundef %156, i64 noundef %157, ptr noundef @.str.18)
  br label %159

159:                                              ; preds = %155
  br label %160

160:                                              ; preds = %159
  store i8 1, ptr %9, align 1, !tbaa !7
  %161 = load i8, ptr %9, align 1, !tbaa !7, !range !9, !noundef !10
  %162 = trunc i8 %161 to i1
  %163 = zext i1 %162 to i8
  store i8 %163, ptr %9, align 1, !tbaa !7
  br label %164

164:                                              ; preds = %160
  br label %165

165:                                              ; preds = %164
  br label %166

166:                                              ; preds = %165
  store i32 -1, ptr %6, align 4, !tbaa !17
  br label %233

167:                                              ; No predecessors!
  br label %168

168:                                              ; preds = %167
  br label %169

169:                                              ; preds = %168
  br label %170

170:                                              ; preds = %169
  br label %171

171:                                              ; preds = %170, %149
  store i64 0, ptr %5, align 8, !tbaa !3
  br label %172

172:                                              ; preds = %229, %171
  %173 = load i64, ptr %5, align 8, !tbaa !3
  %174 = load i64, ptr %3, align 8, !tbaa !3
  %175 = icmp ult i64 %173, %174
  br i1 %175, label %176, label %232

176:                                              ; preds = %172
  %177 = load ptr, ptr %4, align 8, !tbaa !28
  %178 = load i64, ptr %5, align 8, !tbaa !3
  %179 = getelementptr inbounds nuw %struct.H5ES_err_info_t, ptr %177, i64 %178
  %180 = getelementptr inbounds nuw %struct.H5ES_err_info_t, ptr %179, i32 0, i32 0
  %181 = load ptr, ptr %180, align 8, !tbaa !30
  %182 = call ptr @H5MM_xfree(ptr noundef %181)
  %183 = load ptr, ptr %4, align 8, !tbaa !28
  %184 = load i64, ptr %5, align 8, !tbaa !3
  %185 = getelementptr inbounds nuw %struct.H5ES_err_info_t, ptr %183, i64 %184
  %186 = getelementptr inbounds nuw %struct.H5ES_err_info_t, ptr %185, i32 0, i32 1
  %187 = load ptr, ptr %186, align 8, !tbaa !33
  %188 = call ptr @H5MM_xfree(ptr noundef %187)
  %189 = load ptr, ptr %4, align 8, !tbaa !28
  %190 = load i64, ptr %5, align 8, !tbaa !3
  %191 = getelementptr inbounds nuw %struct.H5ES_err_info_t, ptr %189, i64 %190
  %192 = getelementptr inbounds nuw %struct.H5ES_err_info_t, ptr %191, i32 0, i32 2
  %193 = load ptr, ptr %192, align 8, !tbaa !34
  %194 = call ptr @H5MM_xfree(ptr noundef %193)
  %195 = load ptr, ptr %4, align 8, !tbaa !28
  %196 = load i64, ptr %5, align 8, !tbaa !3
  %197 = getelementptr inbounds nuw %struct.H5ES_err_info_t, ptr %195, i64 %196
  %198 = getelementptr inbounds nuw %struct.H5ES_err_info_t, ptr %197, i32 0, i32 3
  %199 = load ptr, ptr %198, align 8, !tbaa !35
  %200 = call ptr @H5MM_xfree(ptr noundef %199)
  %201 = load ptr, ptr %4, align 8, !tbaa !28
  %202 = load i64, ptr %5, align 8, !tbaa !3
  %203 = getelementptr inbounds nuw %struct.H5ES_err_info_t, ptr %201, i64 %202
  %204 = getelementptr inbounds nuw %struct.H5ES_err_info_t, ptr %203, i32 0, i32 9
  %205 = load i64, ptr %204, align 8, !tbaa !36
  %206 = call i32 @H5I_dec_app_ref(i64 noundef %205)
  %207 = icmp slt i32 %206, 0
  br i1 %207, label %208, label %228

208:                                              ; preds = %176
  br label %209

209:                                              ; preds = %208
  br label %210

210:                                              ; preds = %209
  br label %211

211:                                              ; preds = %210
  %212 = load i64, ptr @H5E_EVENTSET_g, align 8, !tbaa !3
  %213 = load i64, ptr @H5E_CANTDEC_g, align 8, !tbaa !3
  %214 = load i64, ptr %5, align 8, !tbaa !3
  %215 = call i32 (ptr, ptr, i32, i64, i64, ptr, ...) @H5E_printf_stack(ptr noundef @.str, ptr noundef @__func__.H5ESfree_err_info, i32 noundef 506, i64 noundef %212, i64 noundef %213, ptr noundef @.str.21, i64 noundef %214)
  br label %216

216:                                              ; preds = %211
  br label %217

217:                                              ; preds = %216
  store i8 1, ptr %9, align 1, !tbaa !7
  %218 = load i8, ptr %9, align 1, !tbaa !7, !range !9, !noundef !10
  %219 = trunc i8 %218 to i1
  %220 = zext i1 %219 to i8
  store i8 %220, ptr %9, align 1, !tbaa !7
  br label %221

221:                                              ; preds = %217
  br label %222

222:                                              ; preds = %221
  br label %223

223:                                              ; preds = %222
  store i32 -1, ptr %6, align 4, !tbaa !17
  br label %233

224:                                              ; No predecessors!
  br label %225

225:                                              ; preds = %224
  br label %226

226:                                              ; preds = %225
  br label %227

227:                                              ; preds = %226
  br label %228

228:                                              ; preds = %227, %176
  br label %229

229:                                              ; preds = %228
  %230 = load i64, ptr %5, align 8, !tbaa !3
  %231 = add i64 %230, 1
  store i64 %231, ptr %5, align 8, !tbaa !3
  br label %172, !llvm.loop !37

232:                                              ; preds = %172
  br label %233

233:                                              ; preds = %232, %223, %166, %144, %118, %86, %48
  %234 = load i8, ptr %8, align 1, !tbaa !7, !range !9, !noundef !10
  %235 = trunc i8 %234 to i1
  %236 = xor i1 %235, true
  %237 = xor i1 %236, true
  %238 = zext i1 %237 to i32
  %239 = sext i32 %238 to i64
  %240 = call i64 @llvm.expect.i64(i64 %239, i64 1)
  %241 = icmp ne i64 %240, 0
  br i1 %241, label %242, label %244

242:                                              ; preds = %233
  %243 = call i32 @H5CX_pop(i1 noundef zeroext true)
  store i8 0, ptr %8, align 1, !tbaa !7
  br label %244

244:                                              ; preds = %242, %233
  %245 = load i8, ptr %9, align 1, !tbaa !7, !range !9, !noundef !10
  %246 = trunc i8 %245 to i1
  %247 = xor i1 %246, true
  %248 = xor i1 %247, true
  %249 = zext i1 %248 to i32
  %250 = sext i32 %249 to i64
  %251 = call i64 @llvm.expect.i64(i64 %250, i64 0)
  %252 = icmp ne i64 %251, 0
  br i1 %252, label %253, label %255

253:                                              ; preds = %244
  %254 = call i32 @H5E_dump_api_stack()
  br label %255

255:                                              ; preds = %253, %244
  %256 = load i32, ptr %6, align 4, !tbaa !17
  call void @llvm.lifetime.end.p0(i64 1, ptr %9) #5
  call void @llvm.lifetime.end.p0(i64 1, ptr %8) #5
  call void @llvm.lifetime.end.p0(i64 480, ptr %7) #5
  call void @llvm.lifetime.end.p0(i64 4, ptr %6) #5
  call void @llvm.lifetime.end.p0(i64 8, ptr %5) #5
  ret i32 %256
}