; Function Attrs: nounwind uwtable
define range(i32 -1, 1) i32 @H5ESfree_err_info(i64 noundef %0, ptr noundef readonly captures(address_is_null) %1) local_unnamed_addr #0 {
  %3 = alloca %struct.H5CX_node_t, align 8
  call void @llvm.lifetime.start.p0(i64 480, ptr nonnull %3) #4
  call void @llvm.memset.p0.i64(ptr noundef nonnull align 8 dereferenceable(480) %3, i8 0, i64 480, i1 false)
  %4 = load i8, ptr @H5_libinit_g, align 1, !tbaa !3, !range !7, !noundef !8
  %5 = trunc nuw i8 %4 to i1
  %6 = load i8, ptr @H5_libterm_g, align 1, !range !7
  %7 = trunc nuw i8 %6 to i1
  %8 = select i1 %5, i1 true, i1 %7
  br i1 %8, label %16, label %9, !prof !9

9:                                                ; preds = %2
  %10 = tail call i32 @H5_init_library() #4
  %11 = icmp slt i32 %10, 0
  br i1 %11, label %12, label %._crit_edge, !prof !10

._crit_edge:                                      ; preds = %9
  %.pre = load i8, ptr @H5_libterm_g, align 1, !range !7
  br label %16

12:                                               ; preds = %9
  %13 = load i64, ptr @H5E_FUNC_g, align 8, !tbaa !11
  %14 = load i64, ptr @H5E_CANTINIT_g, align 8, !tbaa !11
  %15 = tail call i32 (ptr, ptr, i32, i64, i64, ptr, ...) @H5E_printf_stack(ptr noundef nonnull @.str, ptr noundef nonnull @__func__.H5ESfree_err_info, i32 noundef 491, i64 noundef %13, i64 noundef %14, ptr noundef nonnull @.str.1) #4
  br label %.thread37

16:                                               ; preds = %._crit_edge, %2
  %17 = phi i8 [ %.pre, %._crit_edge ], [ %6, %2 ]
  %18 = load i8, ptr @H5ES_init_g, align 1, !tbaa !3, !range !7, !noundef !8
  %19 = trunc nuw i8 %18 to i1
  %20 = trunc nuw i8 %17 to i1
  %21 = select i1 %19, i1 true, i1 %20
  br i1 %21, label %29, label %22, !prof !9

22:                                               ; preds = %16
  store i8 1, ptr @H5ES_init_g, align 1, !tbaa !3
  %23 = tail call i32 @H5ES__init_package() #4
  %24 = icmp slt i32 %23, 0
  br i1 %24, label %25, label %29, !prof !13

25:                                               ; preds = %22
  store i8 0, ptr @H5ES_init_g, align 1, !tbaa !3
  %26 = load i64, ptr @H5E_FUNC_g, align 8, !tbaa !11
  %27 = load i64, ptr @H5E_CANTINIT_g, align 8, !tbaa !11
  %28 = tail call i32 (ptr, ptr, i32, i64, i64, ptr, ...) @H5E_printf_stack(ptr noundef nonnull @.str, ptr noundef nonnull @__func__.H5ESfree_err_info, i32 noundef 491, i64 noundef %26, i64 noundef %27, ptr noundef nonnull @.str.2) #4
  br label %.thread37

29:                                               ; preds = %16, %22
  %30 = call i32 @H5CX_push(ptr noundef nonnull %3) #4
  %31 = icmp slt i32 %30, 0
  br i1 %31, label %32, label %36, !prof !10

32:                                               ; preds = %29
  %33 = load i64, ptr @H5E_FUNC_g, align 8, !tbaa !11
  %34 = load i64, ptr @H5E_CANTSET_g, align 8, !tbaa !11
  %35 = call i32 (ptr, ptr, i32, i64, i64, ptr, ...) @H5E_printf_stack(ptr noundef nonnull @.str, ptr noundef nonnull @__func__.H5ESfree_err_info, i32 noundef 491, i64 noundef %33, i64 noundef %34, ptr noundef nonnull @.str.3) #4
  br label %.thread37

36:                                               ; preds = %29
  %37 = call i32 @H5E_clear_stack() #4
  %38 = icmp eq i64 %0, 0
  br i1 %38, label %39, label %43, !prof !14

39:                                               ; preds = %36
  %40 = load i64, ptr @H5E_ARGS_g, align 8, !tbaa !11
  %41 = load i64, ptr @H5E_BADVALUE_g, align 8, !tbaa !11
  %42 = call i32 (ptr, ptr, i32, i64, i64, ptr, ...) @H5E_printf_stack(ptr noundef nonnull @.str, ptr noundef nonnull @__func__.H5ESfree_err_info, i32 noundef 495, i64 noundef %40, i64 noundef %41, ptr noundef nonnull @.str.17) #4
  br label %.thread43

43:                                               ; preds = %36
  %44 = icmp eq ptr %1, null
  br i1 %44, label %45, label %.preheader, !prof !14

45:                                               ; preds = %43
  %46 = load i64, ptr @H5E_ARGS_g, align 8, !tbaa !11
  %47 = load i64, ptr @H5E_BADVALUE_g, align 8, !tbaa !11
  %48 = call i32 (ptr, ptr, i32, i64, i64, ptr, ...) @H5E_printf_stack(ptr noundef nonnull @.str, ptr noundef nonnull @__func__.H5ESfree_err_info, i32 noundef 497, i64 noundef %46, i64 noundef %47, ptr noundef nonnull @.str.18) #4
  br label %.thread43

.preheader:                                       ; preds = %43, %69
  %.02647 = phi i64 [ %70, %69 ], [ 0, %43 ]
  %49 = getelementptr inbounds nuw %struct.H5ES_err_info_t, ptr %1, i64 %.02647
  %50 = load ptr, ptr %49, align 8, !tbaa !21
  %51 = call ptr @H5MM_xfree(ptr noundef %50) #4
  %52 = getelementptr inbounds nuw i8, ptr %49, i64 8
  %53 = load ptr, ptr %52, align 8, !tbaa !25
  %54 = call ptr @H5MM_xfree(ptr noundef %53) #4
  %55 = getelementptr inbounds nuw i8, ptr %49, i64 16
  %56 = load ptr, ptr %55, align 8, !tbaa !26
  %57 = call ptr @H5MM_xfree(ptr noundef %56) #4
  %58 = getelementptr inbounds nuw i8, ptr %49, i64 24
  %59 = load ptr, ptr %58, align 8, !tbaa !27
  %60 = call ptr @H5MM_xfree(ptr noundef %59) #4
  %61 = getelementptr inbounds nuw i8, ptr %49, i64 72
  %62 = load i64, ptr %61, align 8, !tbaa !28
  %63 = call i32 @H5I_dec_app_ref(i64 noundef %62) #4
  %64 = icmp slt i32 %63, 0
  br i1 %64, label %65, label %69, !prof !14

65:                                               ; preds = %.preheader
  %66 = load i64, ptr @H5E_EVENTSET_g, align 8, !tbaa !11
  %67 = load i64, ptr @H5E_CANTDEC_g, align 8, !tbaa !11
  %68 = call i32 (ptr, ptr, i32, i64, i64, ptr, ...) @H5E_printf_stack(ptr noundef nonnull @.str, ptr noundef nonnull @__func__.H5ESfree_err_info, i32 noundef 506, i64 noundef %66, i64 noundef %67, ptr noundef nonnull @.str.21, i64 noundef %.02647) #4
  br label %.thread43

69:                                               ; preds = %.preheader
  %70 = add nuw i64 %.02647, 1
  %exitcond.not = icmp eq i64 %70, %0
  br i1 %exitcond.not, label %72, label %.preheader, !llvm.loop !29

.thread43:                                        ; preds = %65, %45, %39
  %71 = call i32 @H5CX_pop(i1 noundef zeroext true) #4
  br label %.thread37

72:                                               ; preds = %69
  %73 = call i32 @H5CX_pop(i1 noundef zeroext true) #4
  br label %75

.thread37:                                        ; preds = %32, %25, %12, %.thread43
  %74 = call i32 @H5E_dump_api_stack() #4
  br label %75

75:                                               ; preds = %72, %.thread37
  %.0253240 = phi i32 [ -1, %.thread37 ], [ 0, %72 ]
  call void @llvm.lifetime.end.p0(i64 480, ptr nonnull %3) #4
  ret i32 %.0253240
}